target datalayout = "e-m:e-p270:32:32-p271:32:32-p272:64:64-i64:64-i128:128-f80:128-n8:16:32:64-S128"
target triple = "x86_64-unknown-linux-gnu"

%struct.yy_buffer_state = type { ptr, ptr, ptr, i32, i32, i32, i32, i32, i32, i32, i32, i32 }

@.str.7 = private unnamed_addr constant [44 x i8] c"out of dynamic memory in yy_create_buffer()\00", align 1

; Function Attrs: mustprogress nounwind uwtable
define noundef ptr @_Z12veloxtpallocm(i64 noundef %size) #4 {
entry:
  %size.addr = alloca i64, align 8
  store i64 %size, ptr %size.addr, align 8
  %0 = load i64, ptr %size.addr, align 8
  %call = call noalias ptr @malloc(i64 noundef %0) #24
  ret ptr %call
}

; Function Attrs: mustprogress uwtable
define noundef ptr @_ZN16veloxtpFlexLexer16yy_create_bufferERSii(ptr noundef nonnull align 8 dereferenceable(732) %this, ptr noundef nonnull align 8 dereferenceable(16) %file, i32 noundef %size) unnamed_addr #5 align 2 {
entry:
  %this.addr = alloca ptr, align 8
  %file.addr = alloca ptr, align 8
  %size.addr = alloca i32, align 4
  %b = alloca ptr, align 8
  store ptr %this, ptr %this.addr, align 8
  store ptr %file, ptr %file.addr, align 8
  store i32 %size, ptr %size.addr, align 4
  %this1 = load ptr, ptr %this.addr, align 8
  %call = call noundef ptr @_Z12veloxtpallocm(i64 noundef 64)
  store ptr %call, ptr %b, align 8
  %0 = load ptr, ptr %b, align 8
  %tobool = icmp ne ptr %0, null
  br i1 %tobool, label %if.end, label %if.then

if.then:                                          ; preds = %entry
  %vtable = load ptr, ptr %this1, align 8
  %vfn = getelementptr inbounds ptr, ptr %vtable, i64 14
  %1 = load ptr, ptr %vfn, align 8
  call void %1(ptr noundef nonnull align 8 dereferenceable(732) %this1, ptr noundef @.str.7)
  br label %if.end

if.end:                                           ; preds = %if.then, %entry
  %2 = load i32, ptr %size.addr, align 4
  %3 = load ptr, ptr %b, align 8
  %yy_buf_size = getelementptr inbounds %struct.yy_buffer_state, ptr %3, i32 0, i32 3
  store i32 %2, ptr %yy_buf_size, align 8
  %4 = load ptr, ptr %b, align 8
  %yy_buf_size2 = getelementptr inbounds %struct.yy_buffer_state, ptr %4, i32 0, i32 3
  %5 = load i32, ptr %yy_buf_size2, align 8
  %add = add nsw i32 %5, 2
  %conv = sext i32 %add to i64
  %call3 = call noundef ptr @_Z12veloxtpallocm(i64 noundef %conv)
  %6 = load ptr, ptr %b, align 8
  %yy_ch_buf = getelementptr inbounds %struct.yy_buffer_state, ptr %6, i32 0, i32 1
  store ptr %call3, ptr %yy_ch_buf, align 8
  %7 = load ptr, ptr %b, align 8
  %yy_ch_buf4 = getelementptr inbounds %struct.yy_buffer_state, ptr %7, i32 0, i32 1
  %8 = load ptr, ptr %yy_ch_buf4, align 8
  %tobool5 = icmp ne ptr %8, null
  br i1 %tobool5, label %if.end9, label %if.then6

if.then6:                                         ; preds = %if.end
  %vtable7 = load ptr, ptr %this1, align 8
  %vfn8 = getelementptr inbounds ptr, ptr %vtable7, i64 14
  %9 = load ptr, ptr %vfn8, align 8
  call void %9(ptr noundef nonnull align 8 dereferenceable(732) %this1, ptr noundef @.str.7)
  br label %if.end9

if.end9:                                          ; preds = %if.then6, %if.end
  %10 = load ptr, ptr %b, align 8
  %yy_is_our_buffer = getelementptr inbounds %struct.yy_buffer_state, ptr %10, i32 0, i32 5
  store i32 1, ptr %yy_is_our_buffer, align 8
  %11 = load ptr, ptr %b, align 8
  %12 = load ptr, ptr %file.addr, align 8
  call void @_ZN16veloxtpFlexLexer14yy_init_bufferEP15yy_buffer_stateRSi(ptr noundef nonnull align 8 dereferenceable(732) %this1, ptr noundef %11, ptr noundef nonnull align 8 dereferenceable(16) %12)
  %13 = load ptr, ptr %b, align 8
  ret ptr %13
}