; Function Attrs: mustprogress uwtable
define noundef ptr @_ZN16veloxtpFlexLexer16yy_create_bufferERSii(ptr noundef nonnull align 8 dereferenceable(732) %this, ptr noundef nonnull align 8 dereferenceable(16) %file, i32 noundef %size) unnamed_addr #4 align 2 {
entry:
  %call.i = tail call noalias noundef dereferenceable_or_null(64) ptr @malloc(i64 noundef 64) #32
  %tobool.not = icmp eq ptr %call.i, null
  br i1 %tobool.not, label %if.then, label %if.end

if.then:                                          ; preds = %entry
  %vtable = load ptr, ptr %this, align 8
  %vfn = getelementptr inbounds i8, ptr %vtable, i64 112
  %0 = load ptr, ptr %vfn, align 8
  tail call void %0(ptr noundef nonnull align 8 dereferenceable(732) %this, ptr noundef nonnull @.str.7)
  br label %if.end

if.end:                                           ; preds = %if.then, %entry
  %yy_buf_size = getelementptr inbounds i8, ptr %call.i, i64 24
  store i32 %size, ptr %yy_buf_size, align 8
  %add = add nsw i32 %size, 2
  %conv = sext i32 %add to i64
  %call.i8 = tail call noalias noundef ptr @malloc(i64 noundef %conv) #32
  %yy_ch_buf = getelementptr inbounds i8, ptr %call.i, i64 8
  store ptr %call.i8, ptr %yy_ch_buf, align 8
  %tobool5.not = icmp eq ptr %call.i8, null
  br i1 %tobool5.not, label %if.then6, label %if.end9

if.then6:                                         ; preds = %if.end
  %vtable7 = load ptr, ptr %this, align 8
  %vfn8 = getelementptr inbounds i8, ptr %vtable7, i64 112
  %1 = load ptr, ptr %vfn8, align 8
  tail call void %1(ptr noundef nonnull align 8 dereferenceable(732) %this, ptr noundef nonnull @.str.7)
  br label %if.end9

if.end9:                                          ; preds = %if.then6, %if.end
  %yy_is_our_buffer = getelementptr inbounds i8, ptr %call.i, i64 32
  store i32 1, ptr %yy_is_our_buffer, align 8
  tail call void @_ZN16veloxtpFlexLexer14yy_init_bufferEP15yy_buffer_stateRSi(ptr noundef nonnull align 8 dereferenceable(732) %this, ptr noundef nonnull %call.i, ptr noundef nonnull align 8 dereferenceable(16) %file)
  ret ptr %call.i
}